; Function Attrs: mustprogress nofree nounwind willreturn memory(argmem: read) uwtable
define noundef zeroext i1 @_ZN3nix9hasSuffixESt17basic_string_viewIcSt11char_traitsIcEES3_(i64 %0, ptr nocapture readonly %1, i64 %2, ptr nocapture readonly %3) local_unnamed_addr #8 personality ptr @__gxx_personality_v0 {
  %.not = icmp ult i64 %0, %2
  br i1 %.not, label %_ZSteqIcSt11char_traitsIcEEbSt17basic_string_viewIT_T0_ES5_.exit, label %5

5:                                                ; preds = %4
  %6 = icmp eq i64 %2, 0
  br i1 %6, label %_ZNSt11char_traitsIcE7compareEPKcS2_m.exit.thread.i.i, label %_ZNSt11char_traitsIcE7compareEPKcS2_m.exit.i.i

_ZNSt11char_traitsIcE7compareEPKcS2_m.exit.i.i:   ; preds = %5
  %7 = sub i64 %0, %2
  %8 = getelementptr inbounds i8, ptr %1, i64 %7
  %bcmp.i = tail call i32 @bcmp(ptr %8, ptr %3, i64 %2)
  %9 = icmp eq i32 %bcmp.i, 0
  br i1 %9, label %_ZNSt11char_traitsIcE7compareEPKcS2_m.exit.thread.i.i, label %_ZSteqIcSt11char_traitsIcEEbSt17basic_string_viewIT_T0_ES5_.exit

_ZNSt11char_traitsIcE7compareEPKcS2_m.exit.thread.i.i: ; preds = %_ZNSt11char_traitsIcE7compareEPKcS2_m.exit.i.i, %5
  br label %_ZSteqIcSt11char_traitsIcEEbSt17basic_string_viewIT_T0_ES5_.exit

_ZSteqIcSt11char_traitsIcEEbSt17basic_string_viewIT_T0_ES5_.exit: ; preds = %_ZNSt11char_traitsIcE7compareEPKcS2_m.exit.thread.i.i, %_ZNSt11char_traitsIcE7compareEPKcS2_m.exit.i.i, %4
  %10 = phi i1 [ false, %4 ], [ true, %_ZNSt11char_traitsIcE7compareEPKcS2_m.exit.thread.i.i ], [ false, %_ZNSt11char_traitsIcE7compareEPKcS2_m.exit.i.i ]
  ret i1 %10
}